target datalayout = "e-m:e-p270:32:32-p271:32:32-p272:64:64-i64:64-i128:128-f80:128-n8:16:32:64-S128"
target triple = "x86_64-pc-linux-gnu"

%struct.SDL_AudioDriver = type { ptr, ptr, %struct.SDL_AudioDriverImpl, ptr, ptr, ptr, i32, i32, %struct.SDL_PendingAudioDeviceEvent, ptr, %struct.SDL_AtomicInt, %struct.SDL_AtomicInt, %struct.SDL_AtomicInt }
%struct.SDL_AudioDriverImpl = type { ptr, ptr, ptr, ptr, ptr, ptr, ptr, ptr, ptr, ptr, ptr, ptr, ptr, ptr, i8, i8, i8, i8 }
%struct.SDL_PendingAudioDeviceEvent = type { i32, i32, ptr }
%struct.SDL_AtomicInt = type { i32 }
%struct.CountAudioDevicesData = type { i32, i32, ptr, i8 }

@current_audio = internal global %struct.SDL_AudioDriver zeroinitializer, align 8
@.str.10 = private unnamed_addr constant [35 x i8] c"Audio subsystem is not initialized\00", align 1

; Function Attrs: nounwind uwtable
define hidden ptr @SDL_GetCurrentAudioDriver_REAL() #0 {
  %1 = load ptr, ptr @current_audio, align 8
  ret ptr %1
}

; Function Attrs: nounwind uwtable
define internal ptr @GetAudioDevices(ptr noundef %0, i1 noundef zeroext %1) #0 {
  %3 = alloca ptr, align 8
  %4 = alloca i8, align 1
  %5 = alloca ptr, align 8
  %6 = alloca i32, align 4
  %7 = alloca %struct.CountAudioDevicesData, align 8
  store ptr %0, ptr %3, align 8
  %8 = zext i1 %1 to i8
  store i8 %8, ptr %4, align 1
  call void @llvm.lifetime.start.p0(i64 8, ptr %5) #6
  store ptr null, ptr %5, align 8
  call void @llvm.lifetime.start.p0(i64 4, ptr %6) #6
  store i32 0, ptr %6, align 4
  %9 = call ptr @SDL_GetCurrentAudioDriver_REAL()
  %10 = icmp ne ptr %9, null
  br i1 %10, label %11, label %47

11:                                               ; preds = %2
  %12 = load ptr, ptr getelementptr inbounds nuw (%struct.SDL_AudioDriver, ptr @current_audio, i32 0, i32 3), align 8
  call void @SDL_LockRWLockForReading_REAL(ptr noundef %12)
  %13 = load i8, ptr %4, align 1, !range !5, !noundef !6
  %14 = trunc i8 %13 to i1
  %15 = select i1 %14, ptr getelementptr inbounds nuw (%struct.SDL_AudioDriver, ptr @current_audio, i32 0, i32 11), ptr getelementptr inbounds nuw (%struct.SDL_AudioDriver, ptr @current_audio, i32 0, i32 10)
  %16 = call i32 @SDL_GetAtomicInt_REAL(ptr noundef %15)
  store i32 %16, ptr %6, align 4
  %17 = load i32, ptr %6, align 4
  %18 = add nsw i32 %17, 1
  %19 = sext i32 %18 to i64
  %20 = mul i64 %19, 4
  %21 = call noalias ptr @SDL_malloc_REAL(i64 noundef %20)
  store ptr %21, ptr %5, align 8
  %22 = load ptr, ptr %5, align 8
  %23 = icmp ne ptr %22, null
  br i1 %23, label %24, label %45

24:                                               ; preds = %11
  call void @llvm.lifetime.start.p0(i64 24, ptr %7) #6
  %25 = getelementptr inbounds nuw %struct.CountAudioDevicesData, ptr %7, i32 0, i32 0
  store i32 0, ptr %25, align 8
  %26 = getelementptr inbounds nuw %struct.CountAudioDevicesData, ptr %7, i32 0, i32 1
  %27 = load i32, ptr %6, align 4
  store i32 %27, ptr %26, align 4
  %28 = getelementptr inbounds nuw %struct.CountAudioDevicesData, ptr %7, i32 0, i32 2
  %29 = load ptr, ptr %5, align 8
  store ptr %29, ptr %28, align 8
  %30 = getelementptr inbounds nuw %struct.CountAudioDevicesData, ptr %7, i32 0, i32 3
  %31 = load i8, ptr %4, align 1, !range !5, !noundef !6
  %32 = trunc i8 %31 to i1
  %33 = zext i1 %32 to i8
  store i8 %33, ptr %30, align 8
  %34 = getelementptr i8, ptr %7, i64 17
  call void @llvm.memset.p0.i64(ptr align 1 %34, i8 0, i64 7, i1 false)
  %35 = load ptr, ptr getelementptr inbounds nuw (%struct.SDL_AudioDriver, ptr @current_audio, i32 0, i32 4), align 8
  %36 = call zeroext i1 @SDL_IterateHashTable(ptr noundef %35, ptr noundef @CountAudioDevices, ptr noundef %7)
  br label %37

37:                                               ; preds = %24
  br label %38

38:                                               ; preds = %37
  br label %39

39:                                               ; preds = %38
  %40 = load ptr, ptr %5, align 8
  %41 = getelementptr inbounds nuw %struct.CountAudioDevicesData, ptr %7, i32 0, i32 0
  %42 = load i32, ptr %41, align 8
  %43 = sext i32 %42 to i64
  %44 = getelementptr inbounds i32, ptr %40, i64 %43
  store i32 0, ptr %44, align 4
  call void @llvm.lifetime.end.p0(i64 24, ptr %7) #6
  br label %45

45:                                               ; preds = %39, %11
  %46 = load ptr, ptr getelementptr inbounds nuw (%struct.SDL_AudioDriver, ptr @current_audio, i32 0, i32 3), align 8
  call void @SDL_UnlockRWLock_REAL(ptr noundef %46)
  br label %49

47:                                               ; preds = %2
  %48 = call zeroext i1 (ptr, ...) @SDL_SetError_REAL(ptr noundef @.str.10)
  br label %49

49:                                               ; preds = %47, %45
  %50 = load ptr, ptr %3, align 8
  %51 = icmp ne ptr %50, null
  br i1 %51, label %52, label %61

52:                                               ; preds = %49
  %53 = load ptr, ptr %5, align 8
  %54 = icmp ne ptr %53, null
  br i1 %54, label %55, label %58

55:                                               ; preds = %52
  %56 = load i32, ptr %6, align 4
  %57 = load ptr, ptr %3, align 8
  store i32 %56, ptr %57, align 4
  br label %60

58:                                               ; preds = %52
  %59 = load ptr, ptr %3, align 8
  store i32 0, ptr %59, align 4
  br label %60

60:                                               ; preds = %58, %55
  br label %61

61:                                               ; preds = %60, %49
  %62 = load ptr, ptr %5, align 8
  call void @llvm.lifetime.end.p0(i64 4, ptr %6) #6
  call void @llvm.lifetime.end.p0(i64 8, ptr %5) #6
  ret ptr %62
}