; Function Attrs: nounwind uwtable
define internal fastcc ptr @GetAudioDevices(ptr noundef writeonly captures(address_is_null) %0, i1 noundef zeroext %1) unnamed_addr #0 {
  %3 = alloca %struct.CountAudioDevicesData, align 8
  %4 = zext i1 %1 to i8
  %5 = load ptr, ptr @current_audio, align 8
  %.not = icmp eq ptr %5, null
  br i1 %.not, label %.thread, label %6

6:                                                ; preds = %2
  %7 = load ptr, ptr getelementptr inbounds nuw (i8, ptr @current_audio, i64 136), align 8
  tail call void @SDL_LockRWLockForReading_REAL(ptr noundef %7) #14
  %8 = select i1 %1, ptr getelementptr inbounds nuw (i8, ptr @current_audio, i64 196), ptr getelementptr inbounds nuw (i8, ptr @current_audio, i64 192)
  %9 = tail call i32 @SDL_GetAtomicInt_REAL(ptr noundef nonnull %8) #14
  %10 = add nsw i32 %9, 1
  %11 = sext i32 %10 to i64
  %12 = shl nsw i64 %11, 2
  %13 = tail call noalias ptr @SDL_malloc_REAL(i64 noundef %12) #14
  %.not15 = icmp eq ptr %13, null
  br i1 %.not15, label %14, label %.thread29

14:                                               ; preds = %6
  %15 = load ptr, ptr getelementptr inbounds nuw (i8, ptr @current_audio, i64 136), align 8
  tail call void @SDL_UnlockRWLock_REAL(ptr noundef %15) #14
  %.not16 = icmp eq ptr %0, null
  br i1 %.not16, label %27, label %.sink.split

.thread29:                                        ; preds = %6
  call void @llvm.lifetime.start.p0(i64 24, ptr nonnull %3) #14
  store i32 0, ptr %3, align 8
  %16 = getelementptr inbounds nuw i8, ptr %3, i64 4
  store i32 %9, ptr %16, align 4
  %17 = getelementptr inbounds nuw i8, ptr %3, i64 8
  store ptr %13, ptr %17, align 8
  %18 = getelementptr inbounds nuw i8, ptr %3, i64 16
  store i8 %4, ptr %18, align 8
  %19 = getelementptr inbounds nuw i8, ptr %3, i64 17
  call void @llvm.memset.p0.i64(ptr noundef nonnull align 1 dereferenceable(7) %19, i8 0, i64 7, i1 false)
  %20 = load ptr, ptr getelementptr inbounds nuw (i8, ptr @current_audio, i64 144), align 8
  %21 = call zeroext i1 @SDL_IterateHashTable(ptr noundef %20, ptr noundef nonnull @CountAudioDevices, ptr noundef nonnull %3) #14
  %22 = load i32, ptr %3, align 8
  %23 = sext i32 %22 to i64
  %24 = getelementptr inbounds i32, ptr %13, i64 %23
  store i32 0, ptr %24, align 4
  call void @llvm.lifetime.end.p0(i64 24, ptr nonnull %3) #14
  %25 = load ptr, ptr getelementptr inbounds nuw (i8, ptr @current_audio, i64 136), align 8
  call void @SDL_UnlockRWLock_REAL(ptr noundef %25) #14
  %.not1630 = icmp eq ptr %0, null
  br i1 %.not1630, label %27, label %.sink.split

.thread:                                          ; preds = %2
  %26 = tail call zeroext i1 (ptr, ...) @SDL_SetError_REAL(ptr noundef nonnull @.str.10) #14
  %.not1620 = icmp eq ptr %0, null
  br i1 %.not1620, label %27, label %.sink.split

.sink.split:                                      ; preds = %.thread, %14, %.thread29
  %.sink = phi i32 [ %9, %.thread29 ], [ 0, %14 ], [ 0, %.thread ]
  %.01222.ph = phi ptr [ %13, %.thread29 ], [ null, %14 ], [ null, %.thread ]
  store i32 %.sink, ptr %0, align 4
  br label %27

27:                                               ; preds = %.sink.split, %.thread29, %.thread, %14
  %.01222 = phi ptr [ null, %.thread ], [ %13, %14 ], [ %13, %.thread29 ], [ %.01222.ph, %.sink.split ]
  ret ptr %.01222
}